target datalayout = "e-m:e-p270:32:32-p271:32:32-p272:64:64-i64:64-i128:128-f80:128-n8:16:32:64-S128"
target triple = "x86_64-pc-linux-gnu"

%struct.mbedtls_mpi = type { ptr, i16, i16 }

; Function Attrs: nounwind uwtable
define hidden i32 @mbedtls_rsa_validate_crt(ptr noundef %0, ptr noundef %1, ptr noundef %2, ptr noundef %3, ptr noundef %4, ptr noundef %5) #0 {
  %7 = alloca ptr, align 8
  %8 = alloca ptr, align 8
  %9 = alloca ptr, align 8
  %10 = alloca ptr, align 8
  %11 = alloca ptr, align 8
  %12 = alloca ptr, align 8
  %13 = alloca i32, align 4
  %14 = alloca %struct.mbedtls_mpi, align 8
  %15 = alloca %struct.mbedtls_mpi, align 8
  store ptr %0, ptr %7, align 8, !tbaa !3
  store ptr %1, ptr %8, align 8, !tbaa !3
  store ptr %2, ptr %9, align 8, !tbaa !3
  store ptr %3, ptr %10, align 8, !tbaa !3
  store ptr %4, ptr %11, align 8, !tbaa !3
  store ptr %5, ptr %12, align 8, !tbaa !3
  call void @llvm.lifetime.start.p0(i64 4, ptr %13) #4
  store i32 0, ptr %13, align 4, !tbaa !8
  call void @llvm.lifetime.start.p0(i64 16, ptr %14) #4
  call void @llvm.lifetime.start.p0(i64 16, ptr %15) #4
  call void @mbedtls_mpi_init(ptr noundef %14)
  call void @mbedtls_mpi_init(ptr noundef %15)
  %16 = load ptr, ptr %10, align 8, !tbaa !3
  %17 = icmp ne ptr %16, null
  br i1 %17, label %18, label %51

18:                                               ; preds = %6
  %19 = load ptr, ptr %7, align 8, !tbaa !3
  %20 = icmp eq ptr %19, null
  br i1 %20, label %21, label %22

21:                                               ; preds = %18
  store i32 -16512, ptr %13, align 4, !tbaa !8
  br label %127

22:                                               ; preds = %18
  br label %23

23:                                               ; preds = %22
  %24 = load ptr, ptr %7, align 8, !tbaa !3
  %25 = call i32 @mbedtls_mpi_sub_int(ptr noundef %14, ptr noundef %24, i64 noundef 1)
  store i32 %25, ptr %13, align 4, !tbaa !8
  %26 = icmp ne i32 %25, 0
  br i1 %26, label %27, label %28

27:                                               ; preds = %23
  br label %127

28:                                               ; preds = %23
  br label %29

29:                                               ; preds = %28
  br label %30

30:                                               ; preds = %29
  br label %31

31:                                               ; preds = %30
  %32 = load ptr, ptr %10, align 8, !tbaa !3
  %33 = load ptr, ptr %9, align 8, !tbaa !3
  %34 = call i32 @mbedtls_mpi_sub_mpi(ptr noundef %15, ptr noundef %32, ptr noundef %33)
  store i32 %34, ptr %13, align 4, !tbaa !8
  %35 = icmp ne i32 %34, 0
  br i1 %35, label %36, label %37

36:                                               ; preds = %31
  br label %127

37:                                               ; preds = %31
  br label %38

38:                                               ; preds = %37
  br label %39

39:                                               ; preds = %38
  br label %40

40:                                               ; preds = %39
  %41 = call i32 @mbedtls_mpi_mod_mpi(ptr noundef %15, ptr noundef %15, ptr noundef %14)
  store i32 %41, ptr %13, align 4, !tbaa !8
  %42 = icmp ne i32 %41, 0
  br i1 %42, label %43, label %44

43:                                               ; preds = %40
  br label %127

44:                                               ; preds = %40
  br label %45

45:                                               ; preds = %44
  br label %46

46:                                               ; preds = %45
  %47 = call i32 @mbedtls_mpi_cmp_int(ptr noundef %15, i64 noundef 0)
  %48 = icmp ne i32 %47, 0
  br i1 %48, label %49, label %50

49:                                               ; preds = %46
  store i32 -16896, ptr %13, align 4, !tbaa !8
  br label %127

50:                                               ; preds = %46
  br label %51

51:                                               ; preds = %50, %6
  %52 = load ptr, ptr %11, align 8, !tbaa !3
  %53 = icmp ne ptr %52, null
  br i1 %53, label %54, label %87

54:                                               ; preds = %51
  %55 = load ptr, ptr %8, align 8, !tbaa !3
  %56 = icmp eq ptr %55, null
  br i1 %56, label %57, label %58

57:                                               ; preds = %54
  store i32 -16512, ptr %13, align 4, !tbaa !8
  br label %127

58:                                               ; preds = %54
  br label %59

59:                                               ; preds = %58
  %60 = load ptr, ptr %8, align 8, !tbaa !3
  %61 = call i32 @mbedtls_mpi_sub_int(ptr noundef %14, ptr noundef %60, i64 noundef 1)
  store i32 %61, ptr %13, align 4, !tbaa !8
  %62 = icmp ne i32 %61, 0
  br i1 %62, label %63, label %64

63:                                               ; preds = %59
  br label %127

64:                                               ; preds = %59
  br label %65

65:                                               ; preds = %64
  br label %66

66:                                               ; preds = %65
  br label %67

67:                                               ; preds = %66
  %68 = load ptr, ptr %11, align 8, !tbaa !3
  %69 = load ptr, ptr %9, align 8, !tbaa !3
  %70 = call i32 @mbedtls_mpi_sub_mpi(ptr noundef %15, ptr noundef %68, ptr noundef %69)
  store i32 %70, ptr %13, align 4, !tbaa !8
  %71 = icmp ne i32 %70, 0
  br i1 %71, label %72, label %73

72:                                               ; preds = %67
  br label %127

73:                                               ; preds = %67
  br label %74

74:                                               ; preds = %73
  br label %75

75:                                               ; preds = %74
  br label %76

76:                                               ; preds = %75
  %77 = call i32 @mbedtls_mpi_mod_mpi(ptr noundef %15, ptr noundef %15, ptr noundef %14)
  store i32 %77, ptr %13, align 4, !tbaa !8
  %78 = icmp ne i32 %77, 0
  br i1 %78, label %79, label %80

79:                                               ; preds = %76
  br label %127

80:                                               ; preds = %76
  br label %81

81:                                               ; preds = %80
  br label %82

82:                                               ; preds = %81
  %83 = call i32 @mbedtls_mpi_cmp_int(ptr noundef %15, i64 noundef 0)
  %84 = icmp ne i32 %83, 0
  br i1 %84, label %85, label %86

85:                                               ; preds = %82
  store i32 -16896, ptr %13, align 4, !tbaa !8
  br label %127

86:                                               ; preds = %82
  br label %87

87:                                               ; preds = %86, %51
  %88 = load ptr, ptr %12, align 8, !tbaa !3
  %89 = icmp ne ptr %88, null
  br i1 %89, label %90, label %126

90:                                               ; preds = %87
  %91 = load ptr, ptr %7, align 8, !tbaa !3
  %92 = icmp eq ptr %91, null
  br i1 %92, label %96, label %93

93:                                               ; preds = %90
  %94 = load ptr, ptr %8, align 8, !tbaa !3
  %95 = icmp eq ptr %94, null
  br i1 %95, label %96, label %97

96:                                               ; preds = %93, %90
  store i32 -16512, ptr %13, align 4, !tbaa !8
  br label %127

97:                                               ; preds = %93
  br label %98

98:                                               ; preds = %97
  %99 = load ptr, ptr %12, align 8, !tbaa !3
  %100 = load ptr, ptr %8, align 8, !tbaa !3
  %101 = call i32 @mbedtls_mpi_mul_mpi(ptr noundef %14, ptr noundef %99, ptr noundef %100)
  store i32 %101, ptr %13, align 4, !tbaa !8
  %102 = icmp ne i32 %101, 0
  br i1 %102, label %103, label %104

103:                                              ; preds = %98
  br label %127

104:                                              ; preds = %98
  br label %105

105:                                              ; preds = %104
  br label %106

106:                                              ; preds = %105
  br label %107

107:                                              ; preds = %106
  %108 = call i32 @mbedtls_mpi_sub_int(ptr noundef %14, ptr noundef %14, i64 noundef 1)
  store i32 %108, ptr %13, align 4, !tbaa !8
  %109 = icmp ne i32 %108, 0
  br i1 %109, label %110, label %111

110:                                              ; preds = %107
  br label %127

111:                                              ; preds = %107
  br label %112

112:                                              ; preds = %111
  br label %113

113:                                              ; preds = %112
  br label %114

114:                                              ; preds = %113
  %115 = load ptr, ptr %7, align 8, !tbaa !3
  %116 = call i32 @mbedtls_mpi_mod_mpi(ptr noundef %14, ptr noundef %14, ptr noundef %115)
  store i32 %116, ptr %13, align 4, !tbaa !8
  %117 = icmp ne i32 %116, 0
  br i1 %117, label %118, label %119

118:                                              ; preds = %114
  br label %127

119:                                              ; preds = %114
  br label %120

120:                                              ; preds = %119
  br label %121

121:                                              ; preds = %120
  %122 = call i32 @mbedtls_mpi_cmp_int(ptr noundef %14, i64 noundef 0)
  %123 = icmp ne i32 %122, 0
  br i1 %123, label %124, label %125

124:                                              ; preds = %121
  store i32 -16896, ptr %13, align 4, !tbaa !8
  br label %127

125:                                              ; preds = %121
  br label %126

126:                                              ; preds = %125, %87
  br label %127

127:                                              ; preds = %126, %124, %118, %110, %103, %96, %85, %79, %72, %63, %57, %49, %43, %36, %27, %21
  %128 = load i32, ptr %13, align 4, !tbaa !8
  %129 = icmp ne i32 %128, 0
  br i1 %129, label %130, label %139

130:                                              ; preds = %127
  %131 = load i32, ptr %13, align 4, !tbaa !8
  %132 = icmp ne i32 %131, -16896
  br i1 %132, label %133, label %139

133:                                              ; preds = %130
  %134 = load i32, ptr %13, align 4, !tbaa !8
  %135 = icmp ne i32 %134, -16512
  br i1 %135, label %136, label %139

136:                                              ; preds = %133
  %137 = load i32, ptr %13, align 4, !tbaa !8
  %138 = add nsw i32 %137, -16896
  store i32 %138, ptr %13, align 4, !tbaa !8
  br label %139

139:                                              ; preds = %136, %133, %130, %127
  call void @mbedtls_mpi_free(ptr noundef %14)
  call void @mbedtls_mpi_free(ptr noundef %15)
  %140 = load i32, ptr %13, align 4, !tbaa !8
  call void @llvm.lifetime.end.p0(i64 16, ptr %15) #4
  call void @llvm.lifetime.end.p0(i64 16, ptr %14) #4
  call void @llvm.lifetime.end.p0(i64 4, ptr %13) #4
  ret i32 %140
}